target datalayout = "e-m:e-p270:32:32-p271:32:32-p272:64:64-i64:64-i128:128-f80:128-n8:16:32:64-S128"
target triple = "x86_64-pc-linux-gnu"

%struct.RedisModuleCtx = type { ptr, ptr, ptr, ptr, ptr, i32, i32, i32, ptr, i32, ptr, ptr, ptr, ptr, i64, ptr }
%struct.client = type { i64, i64, ptr, i8, i8, i8, i8, i32, ptr, ptr, ptr, ptr, ptr, i64, i64, i32, ptr, i32, i32, ptr, i64, ptr, ptr, ptr, ptr, ptr, i32, i32, i64, ptr, i64, ptr, i64, i64, i64, i32, ptr, i64, i64, i32, i32, i32, i32, i64, i64, ptr, i64, i64, i64, i64, i64, i64, i64, i64, [41 x i8], i32, ptr, i32, i32, i64, %struct.multiState, %struct.blockingState, i64, ptr, ptr, ptr, ptr, ptr, ptr, ptr, ptr, ptr, ptr, ptr, ptr, ptr, ptr, i64, ptr, i64, i32, ptr, ptr, ptr, i64, %struct.listNode, i64, i64, i32, i64, ptr }
%struct.multiState = type { ptr, i32, i32, i32, i64, i32 }
%struct.blockingState = type { i32, i64, i32, ptr, i32, i32, i64, ptr, ptr, i64 }
%struct.listNode = type { ptr, ptr, ptr }
%struct.RedisModuleScanCursor = type { i64, i32 }
%struct.ScanCBData = type { ptr, ptr, ptr }

; Function Attrs: nounwind uwtable
define dso_local i32 @RM_Scan(ptr noundef %0, ptr noundef %1, ptr noundef %2, ptr noundef %3) #0 {
  %5 = alloca i32, align 4
  %6 = alloca ptr, align 8
  %7 = alloca ptr, align 8
  %8 = alloca ptr, align 8
  %9 = alloca ptr, align 8
  %10 = alloca i32, align 4
  %11 = alloca %struct.ScanCBData, align 8
  store ptr %0, ptr %6, align 8, !tbaa !13
  store ptr %1, ptr %7, align 8, !tbaa !678
  store ptr %2, ptr %8, align 8, !tbaa !9
  store ptr %3, ptr %9, align 8, !tbaa !9
  %12 = load ptr, ptr %7, align 8, !tbaa !678
  %13 = getelementptr inbounds nuw %struct.RedisModuleScanCursor, ptr %12, i32 0, i32 1
  %14 = load i32, ptr %13, align 8, !tbaa !682
  %15 = icmp ne i32 %14, 0
  br i1 %15, label %16, label %18

16:                                               ; preds = %4
  %17 = call ptr @__errno_location() #20
  store i32 2, ptr %17, align 4, !tbaa !29
  store i32 0, ptr %5, align 4
  br label %46

18:                                               ; preds = %4
  call void @llvm.lifetime.start.p0(i64 4, ptr %10) #15
  store i32 1, ptr %10, align 4, !tbaa !29
  call void @llvm.lifetime.start.p0(i64 24, ptr %11) #15
  %19 = getelementptr inbounds nuw %struct.ScanCBData, ptr %11, i32 0, i32 0
  %20 = load ptr, ptr %6, align 8, !tbaa !13
  store ptr %20, ptr %19, align 8, !tbaa !683
  %21 = getelementptr inbounds nuw %struct.ScanCBData, ptr %11, i32 0, i32 1
  %22 = load ptr, ptr %9, align 8, !tbaa !9
  store ptr %22, ptr %21, align 8, !tbaa !685
  %23 = getelementptr inbounds nuw %struct.ScanCBData, ptr %11, i32 0, i32 2
  %24 = load ptr, ptr %8, align 8, !tbaa !9
  store ptr %24, ptr %23, align 8, !tbaa !686
  %25 = load ptr, ptr %6, align 8, !tbaa !13
  %26 = getelementptr inbounds nuw %struct.RedisModuleCtx, ptr %25, i32 0, i32 2
  %27 = load ptr, ptr %26, align 8, !tbaa !106
  %28 = getelementptr inbounds nuw %struct.client, ptr %27, i32 0, i32 8
  %29 = load ptr, ptr %28, align 8, !tbaa !117
  %30 = load ptr, ptr %7, align 8, !tbaa !678
  %31 = getelementptr inbounds nuw %struct.RedisModuleScanCursor, ptr %30, i32 0, i32 0
  %32 = load i64, ptr %31, align 8, !tbaa !680
  %33 = call i64 @dbScan(ptr noundef %29, i64 noundef %32, ptr noundef @moduleScanCallback, ptr noundef %11)
  %34 = load ptr, ptr %7, align 8, !tbaa !678
  %35 = getelementptr inbounds nuw %struct.RedisModuleScanCursor, ptr %34, i32 0, i32 0
  store i64 %33, ptr %35, align 8, !tbaa !680
  %36 = load ptr, ptr %7, align 8, !tbaa !678
  %37 = getelementptr inbounds nuw %struct.RedisModuleScanCursor, ptr %36, i32 0, i32 0
  %38 = load i64, ptr %37, align 8, !tbaa !680
  %39 = icmp eq i64 %38, 0
  br i1 %39, label %40, label %43

40:                                               ; preds = %18
  %41 = load ptr, ptr %7, align 8, !tbaa !678
  %42 = getelementptr inbounds nuw %struct.RedisModuleScanCursor, ptr %41, i32 0, i32 1
  store i32 1, ptr %42, align 8, !tbaa !682
  store i32 0, ptr %10, align 4, !tbaa !29
  br label %43

43:                                               ; preds = %40, %18
  %44 = call ptr @__errno_location() #20
  store i32 0, ptr %44, align 4, !tbaa !29
  %45 = load i32, ptr %10, align 4, !tbaa !29
  store i32 %45, ptr %5, align 4
  call void @llvm.lifetime.end.p0(i64 24, ptr %11) #15
  call void @llvm.lifetime.end.p0(i64 4, ptr %10) #15
  br label %46

46:                                               ; preds = %43, %16
  %47 = load i32, ptr %5, align 4
  ret i32 %47
}