; Function Attrs: nounwind uwtable
define dso_local range(i32 0, 2) i32 @RM_Scan(ptr noundef %0, ptr noundef captures(none) %1, ptr noundef %2, ptr noundef %3) #0 {
  %5 = alloca %struct.ScanCBData, align 8
  %6 = getelementptr inbounds nuw i8, ptr %1, i64 8
  %7 = load i32, ptr %6, align 8, !tbaa !576
  %.not = icmp eq i32 %7, 0
  br i1 %.not, label %10, label %8

8:                                                ; preds = %4
  %9 = tail call ptr @__errno_location() #40
  store i32 2, ptr %9, align 4, !tbaa !22
  br label %23

10:                                               ; preds = %4
  call void @llvm.lifetime.start.p0(i64 24, ptr nonnull %5) #35
  store ptr %0, ptr %5, align 8, !tbaa !577
  %11 = getelementptr inbounds nuw i8, ptr %5, i64 8
  store ptr %3, ptr %11, align 8, !tbaa !579
  %12 = getelementptr inbounds nuw i8, ptr %5, i64 16
  store ptr %2, ptr %12, align 8, !tbaa !580
  %13 = getelementptr inbounds nuw i8, ptr %0, i64 16
  %14 = load ptr, ptr %13, align 8, !tbaa !95
  %15 = getelementptr inbounds nuw i8, ptr %14, i64 32
  %16 = load ptr, ptr %15, align 8, !tbaa !117
  %17 = load i64, ptr %1, align 8, !tbaa !574
  %18 = call i64 @dbScan(ptr noundef %16, i64 noundef %17, ptr noundef nonnull @moduleScanCallback, ptr noundef nonnull %5) #35
  store i64 %18, ptr %1, align 8, !tbaa !574
  %19 = icmp eq i64 %18, 0
  br i1 %19, label %20, label %21

20:                                               ; preds = %10
  store i32 1, ptr %6, align 8, !tbaa !576
  br label %21

21:                                               ; preds = %20, %10
  %.0 = phi i32 [ 0, %20 ], [ 1, %10 ]
  %22 = tail call ptr @__errno_location() #40
  store i32 0, ptr %22, align 4, !tbaa !22
  call void @llvm.lifetime.end.p0(i64 24, ptr nonnull %5) #35
  br label %23

23:                                               ; preds = %21, %8
  %.010 = phi i32 [ 0, %8 ], [ %.0, %21 ]
  ret i32 %.010
}